; Function Attrs: mustprogress uwtable
define noundef i64 @_ZN5Yosys3AST7AstNode5asIntEb(ptr nocapture noundef nonnull readonly align 8 dereferenceable(284) %0, i1 noundef zeroext %1) local_unnamed_addr #4 align 2 personality ptr @__gxx_personality_v0 {
  %3 = alloca %"struct.Yosys::RTLIL::Const", align 8
  %4 = getelementptr inbounds i8, ptr %0, i64 4
  %5 = load i32, ptr %4, align 4
  switch i32 %5, label %30 [
    i32 16, label %6
    i32 17, label %26
  ]

6:                                                ; preds = %2
  call void @_ZN5Yosys3AST7AstNode11bitsAsConstEib(ptr dead_on_unwind nonnull writable sret(%"struct.Yosys::RTLIL::Const") align 8 %3, ptr noundef nonnull align 8 dereferenceable(284) %0, i32 noundef 64, i1 noundef zeroext %1)
  %7 = getelementptr inbounds i8, ptr %3, i64 8
  %8 = getelementptr inbounds i8, ptr %3, i64 16
  %9 = load ptr, ptr %8, align 8
  %10 = load ptr, ptr %7, align 8
  %11 = ptrtoint ptr %9 to i64
  %12 = ptrtoint ptr %10 to i64
  %13 = sub i64 %11, %12
  %.not = icmp ult i64 %13, 64
  br label %14

14:                                               ; preds = %6, %16
  %indvars.iv = phi i64 [ 0, %6 ], [ %indvars.iv.next, %16 ]
  %.01019 = phi i64 [ 0, %6 ], [ %.1, %16 ]
  br i1 %.not, label %15, label %16

15:                                               ; preds = %14
  invoke void (ptr, ...) @_ZSt24__throw_out_of_range_fmtPKcz(ptr noundef nonnull @.str.265, i64 noundef %13, i64 noundef %13) #35
          to label %.noexc unwind label %22

.noexc:                                           ; preds = %15
  unreachable

16:                                               ; preds = %14
  %17 = getelementptr inbounds i8, ptr %10, i64 %indvars.iv
  %18 = load i8, ptr %17, align 1
  %19 = icmp eq i8 %18, 1
  %20 = shl nuw i64 1, %indvars.iv
  %21 = select i1 %19, i64 %20, i64 0
  %.1 = or i64 %21, %.01019
  %indvars.iv.next = add nuw nsw i64 %indvars.iv, 1
  %exitcond.not = icmp eq i64 %indvars.iv.next, 64
  br i1 %exitcond.not, label %25, label %14, !llvm.loop !42

22:                                               ; preds = %15
  %23 = landingpad { ptr, i32 }
          cleanup
  %.not.i.i.i.i = icmp eq ptr %10, null
  br i1 %.not.i.i.i.i, label %_ZN5Yosys5RTLIL5ConstD2Ev.exit, label %24

24:                                               ; preds = %22
  tail call void @_ZdlPv(ptr noundef nonnull %10) #33
  br label %_ZN5Yosys5RTLIL5ConstD2Ev.exit

_ZN5Yosys5RTLIL5ConstD2Ev.exit:                   ; preds = %22, %24
  resume { ptr, i32 } %23

25:                                               ; preds = %16
  tail call void @_ZdlPv(ptr noundef nonnull %10) #33
  br label %_ZN5Yosys5RTLIL5ConstD2Ev.exit14

26:                                               ; preds = %2
  %27 = getelementptr inbounds i8, ptr %0, i64 168
  %28 = load double, ptr %27, align 8
  %29 = fptoui double %28 to i64
  br label %_ZN5Yosys5RTLIL5ConstD2Ev.exit14

30:                                               ; preds = %2
  tail call void (ptr, ...) @_ZN5Yosys9log_errorEPKcz(ptr noundef nonnull @.str.119, ptr noundef nonnull @.str.120, i32 noundef 999) #35
  unreachable

_ZN5Yosys5RTLIL5ConstD2Ev.exit14:                 ; preds = %25, %26
  %.0 = phi i64 [ %29, %26 ], [ %.1, %25 ]
  ret i64 %.0
}